; Function Attrs: nounwind uwtable
define ptr @l_Std_Time_TimeZone_Transition_timezoneAt(ptr noundef %0, ptr noundef %1) local_unnamed_addr #1 {
  %3 = tail call ptr @l_Std_Time_TimeZone_Transition_findTransitionForTimestamp(ptr noundef %0, ptr noundef %1)
  %4 = ptrtoint ptr %3 to i64
  %5 = and i64 %4, 1
  %.not.i26 = icmp eq i64 %5, 0
  br i1 %.not.i26, label %9, label %6

6:                                                ; preds = %2
  %7 = lshr i64 %4, 1
  %8 = trunc i64 %7 to i32
  br label %lean_obj_tag.exit

9:                                                ; preds = %2
  %10 = getelementptr i8, ptr %3, i64 4
  %.val.i = load i32, ptr %10, align 4
  %11 = lshr i32 %.val.i, 24
  br label %lean_obj_tag.exit

lean_obj_tag.exit:                                ; preds = %6, %9
  %.0.i = phi i32 [ %8, %6 ], [ %11, %9 ]
  %12 = icmp eq i32 %.0.i, 0
  br i1 %12, label %13, label %15

13:                                               ; preds = %lean_obj_tag.exit
  %14 = load ptr, ptr @l_Std_Time_TimeZone_Transition_timezoneAt___closed__2, align 8, !tbaa !10
  br label %59

15:                                               ; preds = %lean_obj_tag.exit
  %.val = load i32, ptr %3, align 4, !tbaa !4
  %16 = icmp eq i32 %.val, 1
  %17 = getelementptr inbounds nuw i8, ptr %3, i64 8
  %18 = load ptr, ptr %17, align 8, !tbaa !10
  br i1 %16, label %19, label %30

19:                                               ; preds = %15
  %20 = tail call ptr @l_Std_Time_TimeZone_Transition_createTimeZoneFromTransition(ptr noundef %18)
  %21 = ptrtoint ptr %18 to i64
  %22 = and i64 %21, 1
  %.not30 = icmp eq i64 %22, 0
  br i1 %.not30, label %23, label %lean_dec.exit21

23:                                               ; preds = %19
  %24 = load i32, ptr %18, align 4, !tbaa !4
  %25 = icmp sgt i32 %24, 1
  br i1 %25, label %26, label %28, !prof !9

26:                                               ; preds = %23
  %27 = add nsw i32 %24, -1
  store i32 %27, ptr %18, align 4, !tbaa !4
  br label %lean_dec.exit21

28:                                               ; preds = %23
  %.not.i = icmp eq i32 %24, 0
  br i1 %.not.i, label %lean_dec.exit21, label %29

29:                                               ; preds = %28
  tail call void @lean_dec_ref_cold(ptr noundef nonnull %18) #6
  br label %lean_dec.exit21

lean_dec.exit21:                                  ; preds = %29, %28, %26, %19
  store ptr %20, ptr %17, align 8, !tbaa !10
  br label %59

30:                                               ; preds = %15
  %31 = ptrtoint ptr %18 to i64
  %32 = and i64 %31, 1
  %.not = icmp eq i64 %32, 0
  br i1 %.not, label %33, label %lean_inc.exit

33:                                               ; preds = %30
  %.val.i27 = load i32, ptr %18, align 4, !tbaa !4
  %34 = icmp sgt i32 %.val.i27, 0
  br i1 %34, label %35, label %37, !prof !9

35:                                               ; preds = %33
  %36 = add nuw i32 %.val.i27, 1
  store i32 %36, ptr %18, align 4, !tbaa !4
  br label %lean_inc.exit

37:                                               ; preds = %33
  %.not.i28 = icmp eq i32 %.val.i27, 0
  br i1 %.not.i28, label %lean_inc.exit, label %38

38:                                               ; preds = %37
  tail call void @lean_inc_ref_cold(ptr noundef nonnull %18) #6
  br label %lean_inc.exit

lean_inc.exit:                                    ; preds = %38, %37, %35, %30
  br i1 %.not.i26, label %39, label %lean_dec.exit20

39:                                               ; preds = %lean_inc.exit
  %40 = load i32, ptr %3, align 4, !tbaa !4
  %41 = icmp sgt i32 %40, 1
  br i1 %41, label %42, label %44, !prof !9

42:                                               ; preds = %39
  %43 = add nsw i32 %40, -1
  store i32 %43, ptr %3, align 4, !tbaa !4
  br label %lean_dec.exit20

44:                                               ; preds = %39
  %.not.i22 = icmp eq i32 %40, 0
  br i1 %.not.i22, label %lean_dec.exit20, label %45

45:                                               ; preds = %44
  tail call void @lean_dec_ref_cold(ptr noundef nonnull %3) #6
  br label %lean_dec.exit20

lean_dec.exit20:                                  ; preds = %45, %44, %42, %lean_inc.exit
  %46 = tail call ptr @l_Std_Time_TimeZone_Transition_createTimeZoneFromTransition(ptr noundef %18)
  br i1 %.not, label %47, label %lean_dec.exit

47:                                               ; preds = %lean_dec.exit20
  %48 = load i32, ptr %18, align 4, !tbaa !4
  %49 = icmp sgt i32 %48, 1
  br i1 %49, label %50, label %52, !prof !9

50:                                               ; preds = %47
  %51 = add nsw i32 %48, -1
  store i32 %51, ptr %18, align 4, !tbaa !4
  br label %lean_dec.exit

52:                                               ; preds = %47
  %.not.i24 = icmp eq i32 %48, 0
  br i1 %.not.i24, label %lean_dec.exit, label %53

53:                                               ; preds = %52
  tail call void @lean_dec_ref_cold(ptr noundef nonnull %18) #6
  br label %lean_dec.exit

lean_dec.exit:                                    ; preds = %53, %52, %50, %lean_dec.exit20
  tail call void @lean_inc_heartbeat() #6
  %54 = tail call noalias ptr @mi_malloc_small(i64 noundef 16) #6
  %55 = icmp eq ptr %54, null
  br i1 %55, label %56, label %lean_alloc_ctor.exit

56:                                               ; preds = %lean_dec.exit
  tail call void @lean_internal_panic_out_of_memory() #7
  unreachable

lean_alloc_ctor.exit:                             ; preds = %lean_dec.exit
  %57 = getelementptr inbounds nuw i8, ptr %54, i64 4
  store i32 1, ptr %54, align 4, !tbaa !4
  store i32 16842768, ptr %57, align 4
  %58 = getelementptr inbounds nuw i8, ptr %54, i64 8
  store ptr %46, ptr %58, align 8, !tbaa !10
  br label %59

59:                                               ; preds = %lean_dec.exit21, %lean_alloc_ctor.exit, %13
  %.0 = phi ptr [ %14, %13 ], [ %3, %lean_dec.exit21 ], [ %54, %lean_alloc_ctor.exit ]
  ret ptr %.0
}